target datalayout = "e-m:e-p270:32:32-p271:32:32-p272:64:64-i64:64-i128:128-f80:128-n8:16:32:64-S128"
target triple = "x86_64-unknown-linux-gnu"

%"class.absl::lts_20230802::log_internal::Voidify" = type { i8 }
%"class.absl::lts_20230802::log_internal::LogMessageFatal" = type { %"class.absl::lts_20230802::log_internal::LogMessage" }
%"class.absl::lts_20230802::log_internal::LogMessage" = type { %"class.absl::lts_20230802::base_internal::ErrnoSaver", %"class.std::unique_ptr" }
%"class.absl::lts_20230802::base_internal::ErrnoSaver" = type { i32 }
%"class.std::unique_ptr" = type { %"struct.std::__uniq_ptr_data" }
%"struct.std::__uniq_ptr_data" = type { %"class.std::__uniq_ptr_impl" }
%"class.std::__uniq_ptr_impl" = type { %"class.std::tuple" }
%"class.std::tuple" = type { %"struct.std::_Tuple_impl" }
%"struct.std::_Tuple_impl" = type { %"struct.std::_Head_base.35" }
%"struct.std::_Head_base.35" = type { ptr }

@.str.44 = private unnamed_addr constant [139 x i8] c"generated/home/dtcxzyw/WorkSpace/Projects/compilers/llvm-opt-benchmark/bench/protobuf/protobuf/src/google/protobuf/compiler/cpp/helpers.cc\00", align 1
@.str.48 = private unnamed_addr constant [16 x i8] c"Can't get here.\00", align 1
@.str.63 = private unnamed_addr constant [6 x i8] c"Int32\00", align 1
@.str.64 = private unnamed_addr constant [6 x i8] c"Int64\00", align 1
@.str.65 = private unnamed_addr constant [7 x i8] c"UInt32\00", align 1
@.str.66 = private unnamed_addr constant [7 x i8] c"UInt64\00", align 1
@.str.67 = private unnamed_addr constant [7 x i8] c"SInt32\00", align 1
@.str.68 = private unnamed_addr constant [7 x i8] c"SInt64\00", align 1
@.str.69 = private unnamed_addr constant [8 x i8] c"Fixed32\00", align 1
@.str.70 = private unnamed_addr constant [8 x i8] c"Fixed64\00", align 1
@.str.71 = private unnamed_addr constant [9 x i8] c"SFixed32\00", align 1
@.str.72 = private unnamed_addr constant [9 x i8] c"SFixed64\00", align 1
@.str.73 = private unnamed_addr constant [6 x i8] c"Float\00", align 1
@.str.74 = private unnamed_addr constant [7 x i8] c"Double\00", align 1
@.str.75 = private unnamed_addr constant [5 x i8] c"Bool\00", align 1
@.str.76 = private unnamed_addr constant [5 x i8] c"Enum\00", align 1
@.str.77 = private unnamed_addr constant [7 x i8] c"String\00", align 1
@.str.78 = private unnamed_addr constant [6 x i8] c"Bytes\00", align 1
@.str.79 = private unnamed_addr constant [6 x i8] c"Group\00", align 1
@.str.80 = private unnamed_addr constant [8 x i8] c"Message\00", align 1

; Function Attrs: mustprogress nounwind uwtable
define linkonce_odr hidden void @_ZNKO4absl12lts_2023080212log_internal7VoidifyaaINS1_10LogMessageEEEvRKT_(ptr noundef nonnull align 1 dereferenceable(1) %this, ptr noundef nonnull align 8 dereferenceable(16) %0) #5 comdat align 2 {
entry:
  %this.addr = alloca ptr, align 8
  %.addr = alloca ptr, align 8
  store ptr %this, ptr %this.addr, align 8
  store ptr %0, ptr %.addr, align 8
  ret void
}

; Function Attrs: mustprogress nounwind uwtable
define linkonce_odr hidden noundef nonnull align 8 dereferenceable(16) ptr @_ZN4absl12lts_2023080212log_internal10LogMessage14InternalStreamEv(ptr noundef nonnull align 8 dereferenceable(16) %this) #5 comdat align 2 {
entry:
  %this.addr = alloca ptr, align 8
  store ptr %this, ptr %this.addr, align 8
  %this1 = load ptr, ptr %this.addr, align 8
  ret ptr %this1
}

; Function Attrs: mustprogress uwtable
define hidden noundef ptr @_ZN6google8protobuf8compiler3cpp22DeclaredTypeMethodNameENS0_8internal19FieldDescriptorLite4TypeE(i32 noundef %type) #4 personality ptr @__gxx_personality_v0 {
entry:
  %retval = alloca ptr, align 8
  %type.addr = alloca i32, align 4
  %ref.tmp = alloca %"class.absl::lts_20230802::log_internal::Voidify", align 1
  %ref.tmp18 = alloca %"class.absl::lts_20230802::log_internal::LogMessageFatal", align 8
  %exn.slot = alloca ptr, align 8
  %ehselector.slot = alloca i32, align 4
  store i32 %type, ptr %type.addr, align 4
  %0 = load i32, ptr %type.addr, align 4
  switch i32 %0, label %sw.epilog [
    i32 5, label %sw.bb
    i32 3, label %sw.bb1
    i32 13, label %sw.bb2
    i32 4, label %sw.bb3
    i32 17, label %sw.bb4
    i32 18, label %sw.bb5
    i32 7, label %sw.bb6
    i32 6, label %sw.bb7
    i32 15, label %sw.bb8
    i32 16, label %sw.bb9
    i32 2, label %sw.bb10
    i32 1, label %sw.bb11
    i32 8, label %sw.bb12
    i32 14, label %sw.bb13
    i32 9, label %sw.bb14
    i32 12, label %sw.bb15
    i32 10, label %sw.bb16
    i32 11, label %sw.bb17
  ]

sw.bb:                                            ; preds = %entry
  store ptr @.str.63, ptr %retval, align 8
  br label %return

sw.bb1:                                           ; preds = %entry
  store ptr @.str.64, ptr %retval, align 8
  br label %return

sw.bb2:                                           ; preds = %entry
  store ptr @.str.65, ptr %retval, align 8
  br label %return

sw.bb3:                                           ; preds = %entry
  store ptr @.str.66, ptr %retval, align 8
  br label %return

sw.bb4:                                           ; preds = %entry
  store ptr @.str.67, ptr %retval, align 8
  br label %return

sw.bb5:                                           ; preds = %entry
  store ptr @.str.68, ptr %retval, align 8
  br label %return

sw.bb6:                                           ; preds = %entry
  store ptr @.str.69, ptr %retval, align 8
  br label %return

sw.bb7:                                           ; preds = %entry
  store ptr @.str.70, ptr %retval, align 8
  br label %return

sw.bb8:                                           ; preds = %entry
  store ptr @.str.71, ptr %retval, align 8
  br label %return

sw.bb9:                                           ; preds = %entry
  store ptr @.str.72, ptr %retval, align 8
  br label %return

sw.bb10:                                          ; preds = %entry
  store ptr @.str.73, ptr %retval, align 8
  br label %return

sw.bb11:                                          ; preds = %entry
  store ptr @.str.74, ptr %retval, align 8
  br label %return

sw.bb12:                                          ; preds = %entry
  store ptr @.str.75, ptr %retval, align 8
  br label %return

sw.bb13:                                          ; preds = %entry
  store ptr @.str.76, ptr %retval, align 8
  br label %return

sw.bb14:                                          ; preds = %entry
  store ptr @.str.77, ptr %retval, align 8
  br label %return

sw.bb15:                                          ; preds = %entry
  store ptr @.str.78, ptr %retval, align 8
  br label %return

sw.bb16:                                          ; preds = %entry
  store ptr @.str.79, ptr %retval, align 8
  br label %return

sw.bb17:                                          ; preds = %entry
  store ptr @.str.80, ptr %retval, align 8
  br label %return

sw.epilog:                                        ; preds = %entry
  call void @_ZN4absl12lts_2023080212log_internal15LogMessageFatalC1EPKci(ptr noundef nonnull align 8 dereferenceable(16) %ref.tmp18, ptr noundef @.str.44, i32 noundef 752) #24
  %call = invoke noundef nonnull align 8 dereferenceable(16) ptr @_ZN4absl12lts_2023080212log_internal10LogMessage14InternalStreamEv(ptr noundef nonnull align 8 dereferenceable(16) %ref.tmp18)
          to label %invoke.cont unwind label %lpad

invoke.cont:                                      ; preds = %sw.epilog
  %call20 = invoke noundef nonnull align 8 dereferenceable(16) ptr @_ZN4absl12lts_2023080212log_internal10LogMessagelsILi16EEERS2_RAT__Kc(ptr noundef nonnull align 8 dereferenceable(16) %call, ptr noundef nonnull align 1 dereferenceable(16) @.str.48)
          to label %invoke.cont19 unwind label %lpad

invoke.cont19:                                    ; preds = %invoke.cont
  invoke void @_ZNKO4absl12lts_2023080212log_internal7VoidifyaaINS1_10LogMessageEEEvRKT_(ptr noundef nonnull align 1 dereferenceable(1) %ref.tmp, ptr noundef nonnull align 8 dereferenceable(16) %call20)
          to label %invoke.cont21 unwind label %lpad

invoke.cont21:                                    ; preds = %invoke.cont19
  call void @_ZN4absl12lts_2023080212log_internal15LogMessageFatalD1Ev(ptr noundef nonnull align 8 dereferenceable(16) %ref.tmp18) #23
  unreachable

lpad:                                             ; preds = %invoke.cont19, %invoke.cont, %sw.epilog
  %1 = landingpad { ptr, i32 }
          cleanup
  %2 = extractvalue { ptr, i32 } %1, 0
  store ptr %2, ptr %exn.slot, align 8
  %3 = extractvalue { ptr, i32 } %1, 1
  store i32 %3, ptr %ehselector.slot, align 4
  call void @_ZN4absl12lts_2023080212log_internal15LogMessageFatalD1Ev(ptr noundef nonnull align 8 dereferenceable(16) %ref.tmp18) #23
  unreachable

4:                                                ; No predecessors!
  br label %eh.resume

return:                                           ; preds = %sw.bb17, %sw.bb16, %sw.bb15, %sw.bb14, %sw.bb13, %sw.bb12, %sw.bb11, %sw.bb10, %sw.bb9, %sw.bb8, %sw.bb7, %sw.bb6, %sw.bb5, %sw.bb4, %sw.bb3, %sw.bb2, %sw.bb1, %sw.bb
  %5 = load ptr, ptr %retval, align 8
  ret ptr %5

eh.resume:                                        ; preds = %4
  %exn = load ptr, ptr %exn.slot, align 8
  %sel = load i32, ptr %ehselector.slot, align 4
  %lpad.val = insertvalue { ptr, i32 } poison, ptr %exn, 0
  %lpad.val22 = insertvalue { ptr, i32 } %lpad.val, i32 %sel, 1
  resume { ptr, i32 } %lpad.val22
}