; Function Attrs: mustprogress uwtable
define hidden noundef nonnull ptr @_ZN6google8protobuf8compiler3cpp22DeclaredTypeMethodNameENS0_8internal19FieldDescriptorLite4TypeE(i32 noundef %type) local_unnamed_addr #4 personality ptr @__gxx_personality_v0 {
entry:
  %ref.tmp18 = alloca %"class.absl::lts_20230802::log_internal::LogMessageFatal", align 8
  %switch.tableidx = add i32 %type, -1
  %0 = icmp ult i32 %switch.tableidx, 18
  br i1 %0, label %switch.lookup, label %sw.epilog

sw.epilog:                                        ; preds = %entry
  call void @_ZN4absl12lts_2023080212log_internal15LogMessageFatalC1EPKci(ptr noundef nonnull align 8 dereferenceable(16) %ref.tmp18, ptr noundef nonnull @.str.44, i32 noundef 752) #28
  %call20 = invoke noundef nonnull align 8 dereferenceable(16) ptr @_ZN4absl12lts_2023080212log_internal10LogMessagelsILi16EEERS2_RAT__Kc(ptr noundef nonnull align 8 dereferenceable(16) %ref.tmp18, ptr noundef nonnull align 1 dereferenceable(16) @.str.48)
          to label %invoke.cont19 unwind label %lpad

invoke.cont19:                                    ; preds = %sw.epilog
  call void @_ZN4absl12lts_2023080212log_internal15LogMessageFatalD1Ev(ptr noundef nonnull align 8 dereferenceable(16) %ref.tmp18) #29
  unreachable

lpad:                                             ; preds = %sw.epilog
  %1 = landingpad { ptr, i32 }
          cleanup
  call void @_ZN4absl12lts_2023080212log_internal15LogMessageFatalD1Ev(ptr noundef nonnull align 8 dereferenceable(16) %ref.tmp18) #29
  unreachable

switch.lookup:                                    ; preds = %entry
  %2 = zext nneg i32 %switch.tableidx to i64
  %switch.gep = getelementptr inbounds [18 x ptr], ptr @switch.table._ZN6google8protobuf8compiler3cpp22DeclaredTypeMethodNameENS0_8internal19FieldDescriptorLite4TypeE, i64 0, i64 %2
  %switch.load = load ptr, ptr %switch.gep, align 8
  ret ptr %switch.load
}